; Function Attrs: nofree norecurse nosync nounwind memory(read, inaccessiblemem: none) uwtable
define internal range(i32 0, 53) i32 @pam_probe(ptr noundef readonly captures(none) %0) #10 {
  %2 = getelementptr i8, ptr %0, i64 8
  %.val = load ptr, ptr %2, align 8, !tbaa !90
  %3 = load i8, ptr %.val, align 1, !tbaa !68
  %4 = icmp eq i8 %3, 80
  br i1 %4, label %pnm_magic_check.exit, label %pnm_probe.exit

pnm_magic_check.exit:                             ; preds = %1
  %5 = getelementptr inbounds nuw i8, ptr %.val, i64 1
  %6 = load i8, ptr %5, align 1, !tbaa !68
  %.not = icmp eq i8 %6, 55
  br i1 %.not, label %.preheader, label %pnm_probe.exit

.preheader:                                       ; preds = %pnm_magic_check.exit, %9
  %.0.i = phi ptr [ %10, %9 ], [ %.val, %pnm_magic_check.exit ]
  %7 = getelementptr inbounds nuw i8, ptr %.0.i, i64 2
  %8 = load i8, ptr %7, align 1, !tbaa !68
  switch i8 %8, label %.loopexit.i [
    i8 13, label %9
    i8 10, label %11
  ]

9:                                                ; preds = %.preheader
  %10 = getelementptr inbounds nuw i8, ptr %.0.i, i64 1
  br label %.preheader, !llvm.loop !131

11:                                               ; preds = %.preheader
  %12 = getelementptr inbounds nuw i8, ptr %.0.i, i64 3
  %13 = load i8, ptr %12, align 1, !tbaa !68
  %14 = icmp eq i8 %13, 35
  %15 = add i8 %13, -48
  %or.cond.i = icmp ult i8 %15, 10
  %or.cond1.i = or i1 %14, %or.cond.i
  br i1 %or.cond1.i, label %pnm_probe.exit, label %.loopexit.i

.loopexit.i:                                      ; preds = %.preheader, %11
  br label %pnm_probe.exit

pnm_probe.exit:                                   ; preds = %1, %.loopexit.i, %11, %pnm_magic_check.exit
  %16 = phi i32 [ 0, %pnm_magic_check.exit ], [ 0, %.loopexit.i ], [ 52, %11 ], [ 0, %1 ]
  ret i32 %16
}